; Function Attrs: nounwind uwtable
define internal noundef ptr @odict_inplace_or(ptr noundef %0, ptr noundef %1) #0 {
  %3 = tail call fastcc i32 @mutablemapping_update_arg(ptr noundef %0, ptr noundef %1)
  %4 = icmp slt i32 %3, 0
  br i1 %4, label %_Py_NewRef.exit, label %5

5:                                                ; preds = %2
  %6 = load i32, ptr %0, align 8, !tbaa !38
  %7 = icmp slt i32 %6, 0
  br i1 %7, label %_Py_NewRef.exit, label %8

8:                                                ; preds = %5
  %9 = add nuw i32 %6, 1
  store i32 %9, ptr %0, align 8, !tbaa !38
  br label %_Py_NewRef.exit

_Py_NewRef.exit:                                  ; preds = %8, %5, %2
  %.0 = phi ptr [ null, %2 ], [ %0, %5 ], [ %0, %8 ]
  ret ptr %.0
}